target datalayout = "e-m:e-p270:32:32-p271:32:32-p272:64:64-i64:64-i128:128-f80:128-n8:16:32:64-S128"
target triple = "x86_64-pc-linux-gnu"

%"struct.duckdb_zstd::ZSTD_customMem" = type { ptr, ptr, ptr }
%"struct.duckdb_zstd::ZSTD_DCtx_s" = type { ptr, ptr, ptr, ptr, %"struct.duckdb_zstd::ZSTD_entropyDTables_t", [640 x i32], ptr, ptr, ptr, ptr, i64, %"struct.duckdb_zstd::ZSTD_frameHeader", i64, i64, i32, i32, i32, i32, %"struct.duckdb_zstd::XXH64_state_s", i64, i32, i32, i32, ptr, %"struct.duckdb_zstd::ZSTD_customMem", i64, i64, i64, i32, i32, ptr, ptr, i32, i32, i32, ptr, i32, i32, i32, i32, ptr, i64, i64, i64, ptr, i64, i64, i64, i64, i32, i32, i32, %"struct.duckdb_zstd::ZSTD_outBuffer_s", ptr, ptr, i32, [65568 x i8], [18 x i8], i64, i64 }
%"struct.duckdb_zstd::ZSTD_entropyDTables_t" = type { [513 x %"struct.duckdb_zstd::ZSTD_seqSymbol"], [257 x %"struct.duckdb_zstd::ZSTD_seqSymbol"], [513 x %"struct.duckdb_zstd::ZSTD_seqSymbol"], [4097 x i32], [3 x i32], [157 x i32] }
%"struct.duckdb_zstd::ZSTD_seqSymbol" = type { i16, i8, i8, i32 }
%"struct.duckdb_zstd::ZSTD_frameHeader" = type { i64, i64, i32, i32, i32, i32, i32, i32, i32 }
%"struct.duckdb_zstd::XXH64_state_s" = type { i64, i64, i64, i64, i64, [4 x i64], i32, [2 x i32] }
%"struct.duckdb_zstd::ZSTD_outBuffer_s" = type { ptr, i64, i64 }
%"struct.duckdb_zstd::ZSTD_bounds" = type { i64, i32, i32 }

; Function Attrs: mustprogress nounwind uwtable
define internal noundef i32 @_ZN11duckdb_zstdL11ERR_isErrorEm(i64 noundef %0) #2 {
  %2 = alloca i64, align 8
  store i64 %0, ptr %2, align 8, !tbaa !34
  %3 = load i64, ptr %2, align 8, !tbaa !34
  %4 = icmp ugt i64 %3, -120
  %5 = zext i1 %4 to i32
  ret i32 %5
}

; Function Attrs: mustprogress nounwind uwtable
define { i64, i64 } @_ZN11duckdb_zstd21ZSTD_dParam_getBoundsENS_15ZSTD_dParameterE(i32 noundef %0) #2 {
  %2 = alloca %"struct.duckdb_zstd::ZSTD_bounds", align 8
  %3 = alloca i32, align 4
  store i32 %0, ptr %3, align 4, !tbaa !133
  call void @llvm.memset.p0.i64(ptr align 8 %2, i8 0, i64 16, i1 false)
  %4 = load i32, ptr %3, align 4, !tbaa !133
  switch i32 %4, label %26 [
    i32 100, label %5
    i32 1000, label %8
    i32 1001, label %11
    i32 1002, label %14
    i32 1003, label %17
    i32 1004, label %20
    i32 1005, label %23
  ]

5:                                                ; preds = %1
  %6 = getelementptr inbounds nuw %"struct.duckdb_zstd::ZSTD_bounds", ptr %2, i32 0, i32 1
  store i32 10, ptr %6, align 8, !tbaa !129
  %7 = getelementptr inbounds nuw %"struct.duckdb_zstd::ZSTD_bounds", ptr %2, i32 0, i32 2
  store i32 31, ptr %7, align 4, !tbaa !131
  br label %29

8:                                                ; preds = %1
  %9 = getelementptr inbounds nuw %"struct.duckdb_zstd::ZSTD_bounds", ptr %2, i32 0, i32 1
  store i32 0, ptr %9, align 8, !tbaa !129
  %10 = getelementptr inbounds nuw %"struct.duckdb_zstd::ZSTD_bounds", ptr %2, i32 0, i32 2
  store i32 1, ptr %10, align 4, !tbaa !131
  br label %29

11:                                               ; preds = %1
  %12 = getelementptr inbounds nuw %"struct.duckdb_zstd::ZSTD_bounds", ptr %2, i32 0, i32 1
  store i32 0, ptr %12, align 8, !tbaa !129
  %13 = getelementptr inbounds nuw %"struct.duckdb_zstd::ZSTD_bounds", ptr %2, i32 0, i32 2
  store i32 1, ptr %13, align 4, !tbaa !131
  br label %29

14:                                               ; preds = %1
  %15 = getelementptr inbounds nuw %"struct.duckdb_zstd::ZSTD_bounds", ptr %2, i32 0, i32 1
  store i32 0, ptr %15, align 8, !tbaa !129
  %16 = getelementptr inbounds nuw %"struct.duckdb_zstd::ZSTD_bounds", ptr %2, i32 0, i32 2
  store i32 1, ptr %16, align 4, !tbaa !131
  br label %29

17:                                               ; preds = %1
  %18 = getelementptr inbounds nuw %"struct.duckdb_zstd::ZSTD_bounds", ptr %2, i32 0, i32 1
  store i32 0, ptr %18, align 8, !tbaa !129
  %19 = getelementptr inbounds nuw %"struct.duckdb_zstd::ZSTD_bounds", ptr %2, i32 0, i32 2
  store i32 1, ptr %19, align 4, !tbaa !131
  br label %29

20:                                               ; preds = %1
  %21 = getelementptr inbounds nuw %"struct.duckdb_zstd::ZSTD_bounds", ptr %2, i32 0, i32 1
  store i32 0, ptr %21, align 8, !tbaa !129
  %22 = getelementptr inbounds nuw %"struct.duckdb_zstd::ZSTD_bounds", ptr %2, i32 0, i32 2
  store i32 1, ptr %22, align 4, !tbaa !131
  br label %29

23:                                               ; preds = %1
  %24 = getelementptr inbounds nuw %"struct.duckdb_zstd::ZSTD_bounds", ptr %2, i32 0, i32 1
  store i32 1024, ptr %24, align 8, !tbaa !129
  %25 = getelementptr inbounds nuw %"struct.duckdb_zstd::ZSTD_bounds", ptr %2, i32 0, i32 2
  store i32 131072, ptr %25, align 4, !tbaa !131
  br label %29

26:                                               ; preds = %1
  br label %27

27:                                               ; preds = %26
  %28 = getelementptr inbounds nuw %"struct.duckdb_zstd::ZSTD_bounds", ptr %2, i32 0, i32 0
  store i64 -40, ptr %28, align 8, !tbaa !135
  br label %29

29:                                               ; preds = %27, %23, %20, %17, %14, %11, %8, %5
  %30 = load { i64, i64 }, ptr %2, align 8
  ret { i64, i64 } %30
}

; Function Attrs: mustprogress nounwind uwtable
define internal noundef i32 @_ZN11duckdb_zstdL24ZSTD_dParam_withinBoundsENS_15ZSTD_dParameterEi(i32 noundef %0, i32 noundef %1) #2 {
  %3 = alloca i32, align 4
  %4 = alloca i32, align 4
  %5 = alloca i32, align 4
  %6 = alloca %"struct.duckdb_zstd::ZSTD_bounds", align 8
  %7 = alloca i32, align 4
  store i32 %0, ptr %4, align 4, !tbaa !133
  store i32 %1, ptr %5, align 4, !tbaa !54
  call void @llvm.lifetime.start.p0(i64 16, ptr %6) #12
  %8 = load i32, ptr %4, align 4, !tbaa !133
  %9 = call { i64, i64 } @_ZN11duckdb_zstd21ZSTD_dParam_getBoundsENS_15ZSTD_dParameterE(i32 noundef %8)
  %10 = getelementptr inbounds nuw { i64, i64 }, ptr %6, i32 0, i32 0
  %11 = extractvalue { i64, i64 } %9, 0
  store i64 %11, ptr %10, align 8
  %12 = getelementptr inbounds nuw { i64, i64 }, ptr %6, i32 0, i32 1
  %13 = extractvalue { i64, i64 } %9, 1
  store i64 %13, ptr %12, align 8
  %14 = getelementptr inbounds nuw %"struct.duckdb_zstd::ZSTD_bounds", ptr %6, i32 0, i32 0
  %15 = load i64, ptr %14, align 8, !tbaa !135
  %16 = call noundef i32 @_ZN11duckdb_zstdL11ERR_isErrorEm(i64 noundef %15)
  %17 = icmp ne i32 %16, 0
  br i1 %17, label %18, label %19

18:                                               ; preds = %2
  store i32 0, ptr %3, align 4
  store i32 1, ptr %7, align 4
  br label %32

19:                                               ; preds = %2
  %20 = load i32, ptr %5, align 4, !tbaa !54
  %21 = getelementptr inbounds nuw %"struct.duckdb_zstd::ZSTD_bounds", ptr %6, i32 0, i32 1
  %22 = load i32, ptr %21, align 8, !tbaa !129
  %23 = icmp slt i32 %20, %22
  br i1 %23, label %24, label %25

24:                                               ; preds = %19
  store i32 0, ptr %3, align 4
  store i32 1, ptr %7, align 4
  br label %32

25:                                               ; preds = %19
  %26 = load i32, ptr %5, align 4, !tbaa !54
  %27 = getelementptr inbounds nuw %"struct.duckdb_zstd::ZSTD_bounds", ptr %6, i32 0, i32 2
  %28 = load i32, ptr %27, align 4, !tbaa !131
  %29 = icmp sgt i32 %26, %28
  br i1 %29, label %30, label %31

30:                                               ; preds = %25
  store i32 0, ptr %3, align 4
  store i32 1, ptr %7, align 4
  br label %32

31:                                               ; preds = %25
  store i32 1, ptr %3, align 4
  store i32 1, ptr %7, align 4
  br label %32

32:                                               ; preds = %31, %30, %24, %18
  call void @llvm.lifetime.end.p0(i64 16, ptr %6) #12
  %33 = load i32, ptr %3, align 4
  ret i32 %33
}

; Function Attrs: mustprogress uwtable
define noundef i64 @_ZN11duckdb_zstd22ZSTD_DCtx_setParameterEPNS_11ZSTD_DCtx_sENS_15ZSTD_dParameterEi(ptr noundef %0, i32 noundef %1, i32 noundef %2) #0 {
  %4 = alloca i64, align 8
  %5 = alloca ptr, align 8
  %6 = alloca i32, align 4
  %7 = alloca i32, align 4
  store ptr %0, ptr %5, align 8, !tbaa !3
  store i32 %1, ptr %6, align 4, !tbaa !133
  store i32 %2, ptr %7, align 4, !tbaa !54
  br label %8

8:                                                ; preds = %3
  %9 = load ptr, ptr %5, align 8, !tbaa !3
  %10 = getelementptr inbounds nuw %"struct.duckdb_zstd::ZSTD_DCtx_s", ptr %9, i32 0, i32 39
  %11 = load i32, ptr %10, align 4, !tbaa !41
  %12 = icmp ne i32 %11, 0
  br i1 %12, label %13, label %22

13:                                               ; preds = %8
  br label %14

14:                                               ; preds = %13
  br label %15

15:                                               ; preds = %14
  br label %16

16:                                               ; preds = %15
  br label %17

17:                                               ; preds = %16
  br label %18

18:                                               ; preds = %17
  br label %19

19:                                               ; preds = %18
  br label %20

20:                                               ; preds = %19
  br label %21

21:                                               ; preds = %20
  store i64 -60, ptr %4, align 8
  br label %198

22:                                               ; preds = %8
  br label %23

23:                                               ; preds = %22
  %24 = load i32, ptr %6, align 4, !tbaa !133
  switch i32 %24, label %186 [
    i32 100, label %25
    i32 1000, label %50
    i32 1001, label %69
    i32 1002, label %88
    i32 1003, label %107
    i32 1004, label %142
    i32 1005, label %163
  ]

25:                                               ; preds = %23
  %26 = load i32, ptr %7, align 4, !tbaa !54
  %27 = icmp eq i32 %26, 0
  br i1 %27, label %28, label %29

28:                                               ; preds = %25
  store i32 27, ptr %7, align 4, !tbaa !54
  br label %29

29:                                               ; preds = %28, %25
  br label %30

30:                                               ; preds = %29
  %31 = load i32, ptr %7, align 4, !tbaa !54
  %32 = call noundef i32 @_ZN11duckdb_zstdL24ZSTD_dParam_withinBoundsENS_15ZSTD_dParameterEi(i32 noundef 100, i32 noundef %31)
  %33 = icmp ne i32 %32, 0
  br i1 %33, label %43, label %34

34:                                               ; preds = %30
  br label %35

35:                                               ; preds = %34
  br label %36

36:                                               ; preds = %35
  br label %37

37:                                               ; preds = %36
  br label %38

38:                                               ; preds = %37
  br label %39

39:                                               ; preds = %38
  br label %40

40:                                               ; preds = %39
  br label %41

41:                                               ; preds = %40
  br label %42

42:                                               ; preds = %41
  store i64 -42, ptr %4, align 8
  br label %198

43:                                               ; preds = %30
  br label %44

44:                                               ; preds = %43
  %45 = load i32, ptr %7, align 4, !tbaa !54
  %46 = zext i32 %45 to i64
  %47 = shl i64 1, %46
  %48 = load ptr, ptr %5, align 8, !tbaa !3
  %49 = getelementptr inbounds nuw %"struct.duckdb_zstd::ZSTD_DCtx_s", ptr %48, i32 0, i32 43
  store i64 %47, ptr %49, align 8, !tbaa !132
  store i64 0, ptr %4, align 8
  br label %198

50:                                               ; preds = %23
  br label %51

51:                                               ; preds = %50
  %52 = load i32, ptr %7, align 4, !tbaa !54
  %53 = call noundef i32 @_ZN11duckdb_zstdL24ZSTD_dParam_withinBoundsENS_15ZSTD_dParameterEi(i32 noundef 1000, i32 noundef %52)
  %54 = icmp ne i32 %53, 0
  br i1 %54, label %64, label %55

55:                                               ; preds = %51
  br label %56

56:                                               ; preds = %55
  br label %57

57:                                               ; preds = %56
  br label %58

58:                                               ; preds = %57
  br label %59

59:                                               ; preds = %58
  br label %60

60:                                               ; preds = %59
  br label %61

61:                                               ; preds = %60
  br label %62

62:                                               ; preds = %61
  br label %63

63:                                               ; preds = %62
  store i64 -42, ptr %4, align 8
  br label %198

64:                                               ; preds = %51
  br label %65

65:                                               ; preds = %64
  %66 = load i32, ptr %7, align 4, !tbaa !54
  %67 = load ptr, ptr %5, align 8, !tbaa !3
  %68 = getelementptr inbounds nuw %"struct.duckdb_zstd::ZSTD_DCtx_s", ptr %67, i32 0, i32 20
  store i32 %66, ptr %68, align 8, !tbaa !81
  store i64 0, ptr %4, align 8
  br label %198

69:                                               ; preds = %23
  br label %70

70:                                               ; preds = %69
  %71 = load i32, ptr %7, align 4, !tbaa !54
  %72 = call noundef i32 @_ZN11duckdb_zstdL24ZSTD_dParam_withinBoundsENS_15ZSTD_dParameterEi(i32 noundef 1001, i32 noundef %71)
  %73 = icmp ne i32 %72, 0
  br i1 %73, label %83, label %74

74:                                               ; preds = %70
  br label %75

75:                                               ; preds = %74
  br label %76

76:                                               ; preds = %75
  br label %77

77:                                               ; preds = %76
  br label %78

78:                                               ; preds = %77
  br label %79

79:                                               ; preds = %78
  br label %80

80:                                               ; preds = %79
  br label %81

81:                                               ; preds = %80
  br label %82

82:                                               ; preds = %81
  store i64 -42, ptr %4, align 8
  br label %198

83:                                               ; preds = %70
  br label %84

84:                                               ; preds = %83
  %85 = load i32, ptr %7, align 4, !tbaa !54
  %86 = load ptr, ptr %5, align 8, !tbaa !3
  %87 = getelementptr inbounds nuw %"struct.duckdb_zstd::ZSTD_DCtx_s", ptr %86, i32 0, i32 51
  store i32 %85, ptr %87, align 8, !tbaa !136
  store i64 0, ptr %4, align 8
  br label %198

88:                                               ; preds = %23
  br label %89

89:                                               ; preds = %88
  %90 = load i32, ptr %7, align 4, !tbaa !54
  %91 = call noundef i32 @_ZN11duckdb_zstdL24ZSTD_dParam_withinBoundsENS_15ZSTD_dParameterEi(i32 noundef 1002, i32 noundef %90)
  %92 = icmp ne i32 %91, 0
  br i1 %92, label %102, label %93

93:                                               ; preds = %89
  br label %94

94:                                               ; preds = %93
  br label %95

95:                                               ; preds = %94
  br label %96

96:                                               ; preds = %95
  br label %97

97:                                               ; preds = %96
  br label %98

98:                                               ; preds = %97
  br label %99

99:                                               ; preds = %98
  br label %100

100:                                              ; preds = %99
  br label %101

101:                                              ; preds = %100
  store i64 -42, ptr %4, align 8
  br label %198

102:                                              ; preds = %89
  br label %103

103:                                              ; preds = %102
  %104 = load i32, ptr %7, align 4, !tbaa !54
  %105 = load ptr, ptr %5, align 8, !tbaa !3
  %106 = getelementptr inbounds nuw %"struct.duckdb_zstd::ZSTD_DCtx_s", ptr %105, i32 0, i32 21
  store i32 %104, ptr %106, align 4, !tbaa !99
  store i64 0, ptr %4, align 8
  br label %198

107:                                              ; preds = %23
  br label %108

108:                                              ; preds = %107
  %109 = load i32, ptr %7, align 4, !tbaa !54
  %110 = call noundef i32 @_ZN11duckdb_zstdL24ZSTD_dParam_withinBoundsENS_15ZSTD_dParameterEi(i32 noundef 1003, i32 noundef %109)
  %111 = icmp ne i32 %110, 0
  br i1 %111, label %121, label %112

112:                                              ; preds = %108
  br label %113

113:                                              ; preds = %112
  br label %114

114:                                              ; preds = %113
  br label %115

115:                                              ; preds = %114
  br label %116

116:                                              ; preds = %115
  br label %117

117:                                              ; preds = %116
  br label %118

118:                                              ; preds = %117
  br label %119

119:                                              ; preds = %118
  br label %120

120:                                              ; preds = %119
  store i64 -42, ptr %4, align 8
  br label %198

121:                                              ; preds = %108
  br label %122

122:                                              ; preds = %121
  %123 = load ptr, ptr %5, align 8, !tbaa !3
  %124 = getelementptr inbounds nuw %"struct.duckdb_zstd::ZSTD_DCtx_s", ptr %123, i32 0, i32 27
  %125 = load i64, ptr %124, align 8, !tbaa !35
  %126 = icmp ne i64 %125, 0
  br i1 %126, label %127, label %138

127:                                              ; preds = %122
  br label %128

128:                                              ; preds = %127
  br label %129

129:                                              ; preds = %128
  br label %130

130:                                              ; preds = %129
  br label %131

131:                                              ; preds = %130
  br label %132

132:                                              ; preds = %131
  br label %133

133:                                              ; preds = %132
  br label %134

134:                                              ; preds = %133
  br label %135

135:                                              ; preds = %134
  br label %136

136:                                              ; preds = %135
  store i64 -40, ptr %4, align 8
  br label %198

137:                                              ; No predecessors!
  br label %138

138:                                              ; preds = %137, %122
  %139 = load i32, ptr %7, align 4, !tbaa !54
  %140 = load ptr, ptr %5, align 8, !tbaa !3
  %141 = getelementptr inbounds nuw %"struct.duckdb_zstd::ZSTD_DCtx_s", ptr %140, i32 0, i32 36
  store i32 %139, ptr %141, align 8, !tbaa !96
  store i64 0, ptr %4, align 8
  br label %198

142:                                              ; preds = %23
  br label %143

143:                                              ; preds = %142
  %144 = load i32, ptr %7, align 4, !tbaa !54
  %145 = call noundef i32 @_ZN11duckdb_zstdL24ZSTD_dParam_withinBoundsENS_15ZSTD_dParameterEi(i32 noundef 1004, i32 noundef %144)
  %146 = icmp ne i32 %145, 0
  br i1 %146, label %156, label %147

147:                                              ; preds = %143
  br label %148

148:                                              ; preds = %147
  br label %149

149:                                              ; preds = %148
  br label %150

150:                                              ; preds = %149
  br label %151

151:                                              ; preds = %150
  br label %152

152:                                              ; preds = %151
  br label %153

153:                                              ; preds = %152
  br label %154

154:                                              ; preds = %153
  br label %155

155:                                              ; preds = %154
  store i64 -42, ptr %4, align 8
  br label %198

156:                                              ; preds = %143
  br label %157

157:                                              ; preds = %156
  %158 = load i32, ptr %7, align 4, !tbaa !54
  %159 = icmp ne i32 %158, 0
  %160 = zext i1 %159 to i32
  %161 = load ptr, ptr %5, align 8, !tbaa !3
  %162 = getelementptr inbounds nuw %"struct.duckdb_zstd::ZSTD_DCtx_s", ptr %161, i32 0, i32 37
  store i32 %160, ptr %162, align 4, !tbaa !137
  store i64 0, ptr %4, align 8
  br label %198

163:                                              ; preds = %23
  %164 = load i32, ptr %7, align 4, !tbaa !54
  %165 = icmp ne i32 %164, 0
  br i1 %165, label %166, label %182

166:                                              ; preds = %163
  br label %167

167:                                              ; preds = %166
  %168 = load i32, ptr %7, align 4, !tbaa !54
  %169 = call noundef i32 @_ZN11duckdb_zstdL24ZSTD_dParam_withinBoundsENS_15ZSTD_dParameterEi(i32 noundef 1005, i32 noundef %168)
  %170 = icmp ne i32 %169, 0
  br i1 %170, label %180, label %171

171:                                              ; preds = %167
  br label %172

172:                                              ; preds = %171
  br label %173

173:                                              ; preds = %172
  br label %174

174:                                              ; preds = %173
  br label %175

175:                                              ; preds = %174
  br label %176

176:                                              ; preds = %175
  br label %177

177:                                              ; preds = %176
  br label %178

178:                                              ; preds = %177
  br label %179

179:                                              ; preds = %178
  store i64 -42, ptr %4, align 8
  br label %198

180:                                              ; preds = %167
  br label %181

181:                                              ; preds = %180
  br label %182

182:                                              ; preds = %181, %163
  %183 = load i32, ptr %7, align 4, !tbaa !54
  %184 = load ptr, ptr %5, align 8, !tbaa !3
  %185 = getelementptr inbounds nuw %"struct.duckdb_zstd::ZSTD_DCtx_s", ptr %184, i32 0, i32 38
  store i32 %183, ptr %185, align 8, !tbaa !138
  store i64 0, ptr %4, align 8
  br label %198

186:                                              ; preds = %23
  br label %187

187:                                              ; preds = %186
  br label %188

188:                                              ; preds = %187
  br label %189

189:                                              ; preds = %188
  br label %190

190:                                              ; preds = %189
  br label %191

191:                                              ; preds = %190
  br label %192

192:                                              ; preds = %191
  br label %193

193:                                              ; preds = %192
  br label %194

194:                                              ; preds = %193
  br label %195

195:                                              ; preds = %194
  br label %196

196:                                              ; preds = %195
  store i64 -40, ptr %4, align 8
  br label %198

197:                                              ; No predecessors!
  unreachable

198:                                              ; preds = %196, %182, %179, %157, %155, %138, %136, %120, %103, %101, %84, %82, %65, %63, %44, %42, %21
  %199 = load i64, ptr %4, align 8
  ret i64 %199
}

; Function Attrs: mustprogress uwtable
define noundef i64 @_ZN11duckdb_zstd19ZSTD_DCtx_setFormatEPNS_11ZSTD_DCtx_sENS_13ZSTD_format_eE(ptr noundef %0, i32 noundef %1) #0 {
  %3 = alloca ptr, align 8
  %4 = alloca i32, align 4
  store ptr %0, ptr %3, align 8, !tbaa !3
  store i32 %1, ptr %4, align 4, !tbaa !55
  %5 = load ptr, ptr %3, align 8, !tbaa !3
  %6 = load i32, ptr %4, align 4, !tbaa !55
  %7 = call noundef i64 @_ZN11duckdb_zstd22ZSTD_DCtx_setParameterEPNS_11ZSTD_DCtx_sENS_15ZSTD_dParameterEi(ptr noundef %5, i32 noundef 1000, i32 noundef %6)
  ret i64 %7
}