; Function Attrs: mustprogress nofree norecurse nosync nounwind willreturn memory(argmem: readwrite) uwtable
define noundef range(i64 -60, 1) i64 @_ZN11duckdb_zstd19ZSTD_DCtx_setFormatEPNS_11ZSTD_DCtx_sENS_13ZSTD_format_eE(ptr noundef captures(none) %0, i32 noundef %1) local_unnamed_addr #7 {
  %3 = getelementptr inbounds nuw i8, ptr %0, i64 30236
  %4 = load i32, ptr %3, align 4, !tbaa !129
  %.not.i = icmp eq i32 %4, 0
  br i1 %.not.i, label %5, label %_ZN11duckdb_zstd22ZSTD_DCtx_setParameterEPNS_11ZSTD_DCtx_sENS_15ZSTD_dParameterEi.exit

5:                                                ; preds = %2
  %6 = icmp ugt i32 %1, 1
  br i1 %6, label %_ZN11duckdb_zstd22ZSTD_DCtx_setParameterEPNS_11ZSTD_DCtx_sENS_15ZSTD_dParameterEi.exit, label %7

7:                                                ; preds = %5
  %8 = getelementptr inbounds nuw i8, ptr %0, i64 30104
  store i32 %1, ptr %8, align 8, !tbaa !42
  br label %_ZN11duckdb_zstd22ZSTD_DCtx_setParameterEPNS_11ZSTD_DCtx_sENS_15ZSTD_dParameterEi.exit

_ZN11duckdb_zstd22ZSTD_DCtx_setParameterEPNS_11ZSTD_DCtx_sENS_15ZSTD_dParameterEi.exit: ; preds = %2, %5, %7
  %.0.i = phi i64 [ 0, %7 ], [ -60, %2 ], [ -42, %5 ]
  ret i64 %.0.i
}